target datalayout = "e-m:e-p270:32:32-p271:32:32-p272:64:64-i64:64-i128:128-f80:128-n8:16:32:64-S128"
target triple = "x86_64-pc-linux-gnu"

%struct.Vp3DecodeContext = type { ptr, i32, i32, i32, i32, i32, i32, i32, i32, %struct.ProgressFrame, %struct.ProgressFrame, %struct.ProgressFrame, i32, [64 x i8], [64 x i8], %struct.HpelDSPContext, %struct.VideoDSPContext, %struct.VP3DSPContext, [64 x i16], i32, i32, i32, [3 x i32], i32, [3 x i32], i32, i32, i32, i32, i32, i32, i32, i32, i32, ptr, i32, i32, i32, i32, i32, i32, i32, i32, [2 x i32], [2 x i32], ptr, [3 x i32], [3 x i32], i8, i8, i32, [2 x ptr], [2 x [64 x i16]], [64 x i32], [384 x [64 x i8]], [2 x [3 x i8]], [2 x [3 x [64 x i8]]], [2 x [3 x [64 x i16]]], [3 x [64 x ptr]], ptr, [3 x [64 x i32]], i32, [3 x ptr], ptr, ptr, [3 x i32], ptr, [8 x i8], [3 x [2 x [3 x [64 x i16]]]], ptr, ptr, ptr, [80 x %struct.HuffTable], [64 x i8], [258 x i32], ptr, [8 x i8] }
%struct.ProgressFrame = type { ptr, ptr }
%struct.HpelDSPContext = type { [4 x [4 x ptr]], [4 x [4 x ptr]], [4 x [4 x ptr]], [4 x ptr] }
%struct.VideoDSPContext = type { ptr, ptr }
%struct.VP3DSPContext = type { ptr, ptr, ptr, ptr, ptr, ptr, ptr, ptr }
%struct.HuffTable = type { [32 x %struct.HuffEntry], i8 }
%struct.HuffEntry = type { i8, i8 }
%struct.GetBitContext = type { ptr, ptr, i32, i32, i32 }

@.str.42 = private unnamed_addr constant [20 x i8] c"Invalid run length\0A\00", align 1

; Function Attrs: alwaysinline nounwind willreturn memory(none) uwtable
define internal i32 @av_bswap32(i32 noundef %0) #6 {
  %2 = alloca i32, align 4
  store i32 %0, ptr %2, align 4, !tbaa !31
  %3 = load i32, ptr %2, align 4, !tbaa !31
  %4 = shl i32 %3, 8
  %5 = and i32 %4, 65280
  %6 = load i32, ptr %2, align 4, !tbaa !31
  %7 = lshr i32 %6, 8
  %8 = and i32 %7, 255
  %9 = or i32 %5, %8
  %10 = shl i32 %9, 16
  %11 = load i32, ptr %2, align 4, !tbaa !31
  %12 = lshr i32 %11, 16
  %13 = shl i32 %12, 8
  %14 = and i32 %13, 65280
  %15 = load i32, ptr %2, align 4, !tbaa !31
  %16 = lshr i32 %15, 16
  %17 = lshr i32 %16, 8
  %18 = and i32 %17, 255
  %19 = or i32 %14, %18
  %20 = or i32 %10, %19
  ret i32 %20
}

; Function Attrs: inlinehint nounwind uwtable
define internal i32 @get_bits(ptr noundef %0, i32 noundef %1) #5 {
  %3 = alloca ptr, align 8
  %4 = alloca i32, align 4
  %5 = alloca i32, align 4
  %6 = alloca i32, align 4
  %7 = alloca i32, align 4
  %8 = alloca i32, align 4
  store ptr %0, ptr %3, align 8, !tbaa !149
  store i32 %1, ptr %4, align 4, !tbaa !31
  call void @llvm.lifetime.start.p0(i64 4, ptr %5) #9
  call void @llvm.lifetime.start.p0(i64 4, ptr %6) #9
  %9 = load ptr, ptr %3, align 8, !tbaa !149
  %10 = getelementptr inbounds nuw %struct.GetBitContext, ptr %9, i32 0, i32 2
  %11 = load i32, ptr %10, align 8, !tbaa !151
  store i32 %11, ptr %6, align 4, !tbaa !31
  call void @llvm.lifetime.start.p0(i64 4, ptr %7) #9
  call void @llvm.lifetime.start.p0(i64 4, ptr %8) #9
  %12 = load ptr, ptr %3, align 8, !tbaa !149
  %13 = getelementptr inbounds nuw %struct.GetBitContext, ptr %12, i32 0, i32 4
  %14 = load i32, ptr %13, align 8, !tbaa !153
  store i32 %14, ptr %8, align 4, !tbaa !31
  %15 = load ptr, ptr %3, align 8, !tbaa !149
  %16 = getelementptr inbounds nuw %struct.GetBitContext, ptr %15, i32 0, i32 0
  %17 = load ptr, ptr %16, align 8, !tbaa !154
  %18 = load i32, ptr %6, align 4, !tbaa !31
  %19 = lshr i32 %18, 3
  %20 = zext i32 %19 to i64
  %21 = getelementptr inbounds nuw i8, ptr %17, i64 %20
  %22 = load i32, ptr %21, align 1, !tbaa !70
  %23 = call i32 @av_bswap32(i32 noundef %22) #11
  %24 = load i32, ptr %6, align 4, !tbaa !31
  %25 = and i32 %24, 7
  %26 = shl i32 %23, %25
  %27 = lshr i32 %26, 0
  store i32 %27, ptr %7, align 4, !tbaa !31
  %28 = load i32, ptr %7, align 4, !tbaa !31
  %29 = load i32, ptr %4, align 4, !tbaa !31
  %30 = sub nsw i32 32, %29
  %31 = lshr i32 %28, %30
  store i32 %31, ptr %5, align 4, !tbaa !31
  %32 = load i32, ptr %8, align 4, !tbaa !31
  %33 = load i32, ptr %6, align 4, !tbaa !31
  %34 = load i32, ptr %4, align 4, !tbaa !31
  %35 = add i32 %33, %34
  %36 = icmp ugt i32 %32, %35
  br i1 %36, label %37, label %41

37:                                               ; preds = %2
  %38 = load i32, ptr %6, align 4, !tbaa !31
  %39 = load i32, ptr %4, align 4, !tbaa !31
  %40 = add i32 %38, %39
  br label %43

41:                                               ; preds = %2
  %42 = load i32, ptr %8, align 4, !tbaa !31
  br label %43

43:                                               ; preds = %41, %37
  %44 = phi i32 [ %40, %37 ], [ %42, %41 ]
  store i32 %44, ptr %6, align 4, !tbaa !31
  %45 = load i32, ptr %6, align 4, !tbaa !31
  %46 = load ptr, ptr %3, align 8, !tbaa !149
  %47 = getelementptr inbounds nuw %struct.GetBitContext, ptr %46, i32 0, i32 2
  store i32 %45, ptr %47, align 8, !tbaa !151
  %48 = load i32, ptr %5, align 4, !tbaa !31
  call void @llvm.lifetime.end.p0(i64 4, ptr %8) #9
  call void @llvm.lifetime.end.p0(i64 4, ptr %7) #9
  call void @llvm.lifetime.end.p0(i64 4, ptr %6) #9
  call void @llvm.lifetime.end.p0(i64 4, ptr %5) #9
  ret i32 %48
}

; Function Attrs: inlinehint nounwind uwtable
define internal void @skip_bits(ptr noundef %0, i32 noundef %1) #5 {
  %3 = alloca ptr, align 8
  %4 = alloca i32, align 4
  %5 = alloca i32, align 4
  %6 = alloca i32, align 4
  store ptr %0, ptr %3, align 8, !tbaa !149
  store i32 %1, ptr %4, align 4, !tbaa !31
  call void @llvm.lifetime.start.p0(i64 4, ptr %5) #9
  %7 = load ptr, ptr %3, align 8, !tbaa !149
  %8 = getelementptr inbounds nuw %struct.GetBitContext, ptr %7, i32 0, i32 2
  %9 = load i32, ptr %8, align 8, !tbaa !151
  store i32 %9, ptr %5, align 4, !tbaa !31
  call void @llvm.lifetime.start.p0(i64 4, ptr %6) #9
  %10 = load ptr, ptr %3, align 8, !tbaa !149
  %11 = getelementptr inbounds nuw %struct.GetBitContext, ptr %10, i32 0, i32 4
  %12 = load i32, ptr %11, align 8, !tbaa !153
  store i32 %12, ptr %6, align 4, !tbaa !31
  %13 = load i32, ptr %6, align 4, !tbaa !31
  %14 = load i32, ptr %5, align 4, !tbaa !31
  %15 = load i32, ptr %4, align 4, !tbaa !31
  %16 = add i32 %14, %15
  %17 = icmp ugt i32 %13, %16
  br i1 %17, label %18, label %22

18:                                               ; preds = %2
  %19 = load i32, ptr %5, align 4, !tbaa !31
  %20 = load i32, ptr %4, align 4, !tbaa !31
  %21 = add i32 %19, %20
  br label %24

22:                                               ; preds = %2
  %23 = load i32, ptr %6, align 4, !tbaa !31
  br label %24

24:                                               ; preds = %22, %18
  %25 = phi i32 [ %21, %18 ], [ %23, %22 ]
  store i32 %25, ptr %5, align 4, !tbaa !31
  %26 = load i32, ptr %5, align 4, !tbaa !31
  %27 = load ptr, ptr %3, align 8, !tbaa !149
  %28 = getelementptr inbounds nuw %struct.GetBitContext, ptr %27, i32 0, i32 2
  store i32 %26, ptr %28, align 8, !tbaa !151
  call void @llvm.lifetime.end.p0(i64 4, ptr %6) #9
  call void @llvm.lifetime.end.p0(i64 4, ptr %5) #9
  ret void
}

; Function Attrs: inlinehint nounwind uwtable
define internal i32 @show_bits(ptr noundef %0, i32 noundef %1) #5 {
  %3 = alloca ptr, align 8
  %4 = alloca i32, align 4
  %5 = alloca i32, align 4
  %6 = alloca i32, align 4
  %7 = alloca i32, align 4
  store ptr %0, ptr %3, align 8, !tbaa !149
  store i32 %1, ptr %4, align 4, !tbaa !31
  call void @llvm.lifetime.start.p0(i64 4, ptr %5) #9
  call void @llvm.lifetime.start.p0(i64 4, ptr %6) #9
  %8 = load ptr, ptr %3, align 8, !tbaa !149
  %9 = getelementptr inbounds nuw %struct.GetBitContext, ptr %8, i32 0, i32 2
  %10 = load i32, ptr %9, align 8, !tbaa !151
  store i32 %10, ptr %6, align 4, !tbaa !31
  call void @llvm.lifetime.start.p0(i64 4, ptr %7) #9
  %11 = load ptr, ptr %3, align 8, !tbaa !149
  %12 = getelementptr inbounds nuw %struct.GetBitContext, ptr %11, i32 0, i32 0
  %13 = load ptr, ptr %12, align 8, !tbaa !154
  %14 = load i32, ptr %6, align 4, !tbaa !31
  %15 = lshr i32 %14, 3
  %16 = zext i32 %15 to i64
  %17 = getelementptr inbounds nuw i8, ptr %13, i64 %16
  %18 = load i32, ptr %17, align 1, !tbaa !70
  %19 = call i32 @av_bswap32(i32 noundef %18) #11
  %20 = load i32, ptr %6, align 4, !tbaa !31
  %21 = and i32 %20, 7
  %22 = shl i32 %19, %21
  %23 = lshr i32 %22, 0
  store i32 %23, ptr %7, align 4, !tbaa !31
  %24 = load i32, ptr %7, align 4, !tbaa !31
  %25 = load i32, ptr %4, align 4, !tbaa !31
  %26 = sub nsw i32 32, %25
  %27 = lshr i32 %24, %26
  store i32 %27, ptr %5, align 4, !tbaa !31
  %28 = load i32, ptr %5, align 4, !tbaa !31
  call void @llvm.lifetime.end.p0(i64 4, ptr %7) #9
  call void @llvm.lifetime.end.p0(i64 4, ptr %6) #9
  call void @llvm.lifetime.end.p0(i64 4, ptr %5) #9
  ret i32 %28
}

; Function Attrs: nounwind uwtable
define internal i32 @vp4_get_mb_count(ptr noundef %0, ptr noundef %1) #0 {
  %3 = alloca i32, align 4
  %4 = alloca ptr, align 8
  %5 = alloca ptr, align 8
  %6 = alloca i32, align 4
  %7 = alloca i32, align 4
  %8 = alloca i32, align 4
  store ptr %0, ptr %4, align 8, !tbaa !29
  store ptr %1, ptr %5, align 8, !tbaa !149
  call void @llvm.lifetime.start.p0(i64 4, ptr %6) #9
  store i32 1, ptr %6, align 4, !tbaa !31
  call void @llvm.lifetime.start.p0(i64 4, ptr %7) #9
  br label %9

9:                                                ; preds = %27, %2
  %10 = load ptr, ptr %5, align 8, !tbaa !149
  %11 = call i32 @show_bits(ptr noundef %10, i32 noundef 9)
  store i32 %11, ptr %7, align 4, !tbaa !31
  %12 = icmp eq i32 %11, 511
  br i1 %12, label %13, label %28

13:                                               ; preds = %9
  %14 = load ptr, ptr %5, align 8, !tbaa !149
  call void @skip_bits(ptr noundef %14, i32 noundef 9)
  %15 = load i32, ptr %6, align 4, !tbaa !31
  %16 = add nsw i32 %15, 256
  store i32 %16, ptr %6, align 4, !tbaa !31
  %17 = load i32, ptr %6, align 4, !tbaa !31
  %18 = load ptr, ptr %4, align 8, !tbaa !29
  %19 = getelementptr inbounds nuw %struct.Vp3DecodeContext, ptr %18, i32 0, i32 41
  %20 = load i32, ptr %19, align 16, !tbaa !124
  %21 = icmp sgt i32 %17, %20
  br i1 %21, label %22, label %27

22:                                               ; preds = %13
  %23 = load ptr, ptr %4, align 8, !tbaa !29
  %24 = getelementptr inbounds nuw %struct.Vp3DecodeContext, ptr %23, i32 0, i32 0
  %25 = load ptr, ptr %24, align 16, !tbaa !62
  call void (ptr, i32, ptr, ...) @av_log(ptr noundef %25, i32 noundef 16, ptr noundef @.str.42)
  %26 = load i32, ptr %6, align 4, !tbaa !31
  store i32 %26, ptr %3, align 4
  store i32 1, ptr %8, align 4
  br label %116

27:                                               ; preds = %13
  br label %9, !llvm.loop !269

28:                                               ; preds = %9
  %29 = load i32, ptr %7, align 4, !tbaa !31
  %30 = icmp slt i32 %29, 256
  br i1 %30, label %31, label %33

31:                                               ; preds = %28
  %32 = load ptr, ptr %5, align 8, !tbaa !149
  call void @skip_bits(ptr noundef %32, i32 noundef 1)
  br label %114

33:                                               ; preds = %28
  %34 = load i32, ptr %7, align 4, !tbaa !31
  %35 = icmp slt i32 %34, 384
  br i1 %35, label %36, label %40

36:                                               ; preds = %33
  %37 = load ptr, ptr %5, align 8, !tbaa !149
  call void @skip_bits(ptr noundef %37, i32 noundef 2)
  %38 = load i32, ptr %6, align 4, !tbaa !31
  %39 = add nsw i32 %38, 1
  store i32 %39, ptr %6, align 4, !tbaa !31
  br label %113

40:                                               ; preds = %33
  %41 = load i32, ptr %7, align 4, !tbaa !31
  %42 = icmp slt i32 %41, 448
  br i1 %42, label %43, label %50

43:                                               ; preds = %40
  %44 = load ptr, ptr %5, align 8, !tbaa !149
  call void @skip_bits(ptr noundef %44, i32 noundef 3)
  %45 = load ptr, ptr %5, align 8, !tbaa !149
  %46 = call i32 @get_bits(ptr noundef %45, i32 noundef 1)
  %47 = add i32 2, %46
  %48 = load i32, ptr %6, align 4, !tbaa !31
  %49 = add i32 %48, %47
  store i32 %49, ptr %6, align 4, !tbaa !31
  br label %112

50:                                               ; preds = %40
  %51 = load i32, ptr %7, align 4, !tbaa !31
  %52 = icmp slt i32 %51, 480
  br i1 %52, label %53, label %60

53:                                               ; preds = %50
  %54 = load ptr, ptr %5, align 8, !tbaa !149
  call void @skip_bits(ptr noundef %54, i32 noundef 4)
  %55 = load ptr, ptr %5, align 8, !tbaa !149
  %56 = call i32 @get_bits(ptr noundef %55, i32 noundef 2)
  %57 = add i32 4, %56
  %58 = load i32, ptr %6, align 4, !tbaa !31
  %59 = add i32 %58, %57
  store i32 %59, ptr %6, align 4, !tbaa !31
  br label %111

60:                                               ; preds = %50
  %61 = load i32, ptr %7, align 4, !tbaa !31
  %62 = icmp slt i32 %61, 496
  br i1 %62, label %63, label %70

63:                                               ; preds = %60
  %64 = load ptr, ptr %5, align 8, !tbaa !149
  call void @skip_bits(ptr noundef %64, i32 noundef 5)
  %65 = load ptr, ptr %5, align 8, !tbaa !149
  %66 = call i32 @get_bits(ptr noundef %65, i32 noundef 3)
  %67 = add i32 8, %66
  %68 = load i32, ptr %6, align 4, !tbaa !31
  %69 = add i32 %68, %67
  store i32 %69, ptr %6, align 4, !tbaa !31
  br label %110

70:                                               ; preds = %60
  %71 = load i32, ptr %7, align 4, !tbaa !31
  %72 = icmp slt i32 %71, 504
  br i1 %72, label %73, label %80

73:                                               ; preds = %70
  %74 = load ptr, ptr %5, align 8, !tbaa !149
  call void @skip_bits(ptr noundef %74, i32 noundef 6)
  %75 = load ptr, ptr %5, align 8, !tbaa !149
  %76 = call i32 @get_bits(ptr noundef %75, i32 noundef 4)
  %77 = add i32 16, %76
  %78 = load i32, ptr %6, align 4, !tbaa !31
  %79 = add i32 %78, %77
  store i32 %79, ptr %6, align 4, !tbaa !31
  br label %109

80:                                               ; preds = %70
  %81 = load i32, ptr %7, align 4, !tbaa !31
  %82 = icmp slt i32 %81, 508
  br i1 %82, label %83, label %90

83:                                               ; preds = %80
  %84 = load ptr, ptr %5, align 8, !tbaa !149
  call void @skip_bits(ptr noundef %84, i32 noundef 7)
  %85 = load ptr, ptr %5, align 8, !tbaa !149
  %86 = call i32 @get_bits(ptr noundef %85, i32 noundef 5)
  %87 = add i32 32, %86
  %88 = load i32, ptr %6, align 4, !tbaa !31
  %89 = add i32 %88, %87
  store i32 %89, ptr %6, align 4, !tbaa !31
  br label %108

90:                                               ; preds = %80
  %91 = load i32, ptr %7, align 4, !tbaa !31
  %92 = icmp slt i32 %91, 510
  br i1 %92, label %93, label %100

93:                                               ; preds = %90
  %94 = load ptr, ptr %5, align 8, !tbaa !149
  call void @skip_bits(ptr noundef %94, i32 noundef 8)
  %95 = load ptr, ptr %5, align 8, !tbaa !149
  %96 = call i32 @get_bits(ptr noundef %95, i32 noundef 6)
  %97 = add i32 64, %96
  %98 = load i32, ptr %6, align 4, !tbaa !31
  %99 = add i32 %98, %97
  store i32 %99, ptr %6, align 4, !tbaa !31
  br label %107

100:                                              ; preds = %90
  %101 = load ptr, ptr %5, align 8, !tbaa !149
  call void @skip_bits(ptr noundef %101, i32 noundef 9)
  %102 = load ptr, ptr %5, align 8, !tbaa !149
  %103 = call i32 @get_bits(ptr noundef %102, i32 noundef 7)
  %104 = add i32 128, %103
  %105 = load i32, ptr %6, align 4, !tbaa !31
  %106 = add i32 %105, %104
  store i32 %106, ptr %6, align 4, !tbaa !31
  br label %107

107:                                              ; preds = %100, %93
  br label %108

108:                                              ; preds = %107, %83
  br label %109

109:                                              ; preds = %108, %73
  br label %110

110:                                              ; preds = %109, %63
  br label %111

111:                                              ; preds = %110, %53
  br label %112

112:                                              ; preds = %111, %43
  br label %113

113:                                              ; preds = %112, %36
  br label %114

114:                                              ; preds = %113, %31
  %115 = load i32, ptr %6, align 4, !tbaa !31
  store i32 %115, ptr %3, align 4
  store i32 1, ptr %8, align 4
  br label %116

116:                                              ; preds = %114, %22
  call void @llvm.lifetime.end.p0(i64 4, ptr %7) #9
  call void @llvm.lifetime.end.p0(i64 4, ptr %6) #9
  %117 = load i32, ptr %3, align 4
  ret i32 %117
}