; Function Attrs: nounwind uwtable
define internal fastcc i32 @vp4_get_mb_count(ptr noundef readonly captures(none) %0, ptr noundef nonnull captures(none) %1) unnamed_addr #0 {
  %.val = load ptr, ptr %1, align 8, !tbaa !54
  %3 = getelementptr i8, ptr %1, i64 16
  %.promoted = load i32, ptr %3, align 8, !tbaa !59
  %4 = getelementptr inbounds nuw i8, ptr %1, i64 24
  %5 = getelementptr inbounds nuw i8, ptr %0, i64 960
  br label %6

6:                                                ; preds = %16, %2
  %7 = phi i32 [ %.promoted, %2 ], [ %19, %16 ]
  %.040 = phi i32 [ 1, %2 ], [ %20, %16 ]
  %8 = lshr i32 %7, 3
  %9 = zext nneg i32 %8 to i64
  %10 = getelementptr inbounds nuw i8, ptr %.val, i64 %9
  %11 = load i32, ptr %10, align 1, !tbaa !60
  %12 = tail call i32 @llvm.bswap.i32(i32 %11)
  %13 = and i32 %7, 7
  %14 = shl i32 %12, %13
  %15 = icmp ugt i32 %14, -8388609
  br i1 %15, label %16, label %25

16:                                               ; preds = %6
  %17 = load i32, ptr %4, align 8, !tbaa !57
  %18 = add i32 %7, 9
  %19 = tail call i32 @llvm.umin.i32(i32 %17, i32 %18)
  store i32 %19, ptr %3, align 8, !tbaa !59
  %20 = add nuw nsw i32 %.040, 256
  %21 = load i32, ptr %5, align 16, !tbaa !113
  %22 = icmp sgt i32 %20, %21
  br i1 %22, label %23, label %6, !llvm.loop !258

23:                                               ; preds = %16
  %24 = load ptr, ptr %0, align 16, !tbaa !65
  tail call void (ptr, i32, ptr, ...) @av_log(ptr noundef %24, i32 noundef 16, ptr noundef nonnull @.str.42) #9
  br label %161

25:                                               ; preds = %6
  %26 = icmp sgt i32 %14, -1
  br i1 %26, label %27, label %31

27:                                               ; preds = %25
  %28 = load i32, ptr %4, align 8, !tbaa !57
  %29 = add i32 %7, 1
  %30 = tail call i32 @llvm.umin.i32(i32 %28, i32 %29)
  store i32 %30, ptr %3, align 8, !tbaa !59
  br label %161

31:                                               ; preds = %25
  %32 = icmp samesign ult i32 %14, -1073741824
  br i1 %32, label %33, label %38

33:                                               ; preds = %31
  %34 = load i32, ptr %4, align 8, !tbaa !57
  %35 = add i32 %7, 2
  %36 = tail call i32 @llvm.umin.i32(i32 %34, i32 %35)
  store i32 %36, ptr %3, align 8, !tbaa !59
  %37 = add nuw nsw i32 %.040, 1
  br label %161

38:                                               ; preds = %31
  %39 = icmp samesign ult i32 %14, -536870912
  br i1 %39, label %40, label %56

40:                                               ; preds = %38
  %41 = load i32, ptr %4, align 8, !tbaa !57
  %42 = add i32 %7, 3
  %43 = tail call i32 @llvm.umin.i32(i32 %41, i32 %42)
  store i32 %43, ptr %3, align 8, !tbaa !59
  %44 = lshr i32 %43, 3
  %45 = zext nneg i32 %44 to i64
  %46 = getelementptr inbounds nuw i8, ptr %.val, i64 %45
  %47 = load i32, ptr %46, align 1, !tbaa !60
  %48 = tail call i32 @llvm.bswap.i32(i32 %47)
  %49 = and i32 %43, 7
  %50 = shl i32 %48, %49
  %51 = lshr i32 %50, 31
  %52 = add i32 %43, 1
  %53 = tail call i32 @llvm.umin.i32(i32 %41, i32 %52)
  store i32 %53, ptr %3, align 8, !tbaa !59
  %54 = add nuw i32 %.040, 2
  %55 = add nuw i32 %54, %51
  br label %161

56:                                               ; preds = %38
  %57 = icmp samesign ult i32 %14, -268435456
  br i1 %57, label %58, label %74

58:                                               ; preds = %56
  %59 = load i32, ptr %4, align 8, !tbaa !57
  %60 = add i32 %7, 4
  %61 = tail call i32 @llvm.umin.i32(i32 %59, i32 %60)
  store i32 %61, ptr %3, align 8, !tbaa !59
  %62 = lshr i32 %61, 3
  %63 = zext nneg i32 %62 to i64
  %64 = getelementptr inbounds nuw i8, ptr %.val, i64 %63
  %65 = load i32, ptr %64, align 1, !tbaa !60
  %66 = tail call i32 @llvm.bswap.i32(i32 %65)
  %67 = and i32 %61, 7
  %68 = shl i32 %66, %67
  %69 = lshr i32 %68, 30
  %70 = add i32 %61, 2
  %71 = tail call i32 @llvm.umin.i32(i32 %59, i32 %70)
  store i32 %71, ptr %3, align 8, !tbaa !59
  %72 = add nuw i32 %.040, 4
  %73 = add nuw i32 %72, %69
  br label %161

74:                                               ; preds = %56
  %75 = icmp samesign ult i32 %14, -134217728
  br i1 %75, label %76, label %92

76:                                               ; preds = %74
  %77 = load i32, ptr %4, align 8, !tbaa !57
  %78 = add i32 %7, 5
  %79 = tail call i32 @llvm.umin.i32(i32 %77, i32 %78)
  store i32 %79, ptr %3, align 8, !tbaa !59
  %80 = lshr i32 %79, 3
  %81 = zext nneg i32 %80 to i64
  %82 = getelementptr inbounds nuw i8, ptr %.val, i64 %81
  %83 = load i32, ptr %82, align 1, !tbaa !60
  %84 = tail call i32 @llvm.bswap.i32(i32 %83)
  %85 = and i32 %79, 7
  %86 = shl i32 %84, %85
  %87 = lshr i32 %86, 29
  %88 = add i32 %79, 3
  %89 = tail call i32 @llvm.umin.i32(i32 %77, i32 %88)
  store i32 %89, ptr %3, align 8, !tbaa !59
  %90 = add nuw i32 %.040, 8
  %91 = add nuw i32 %90, %87
  br label %161

92:                                               ; preds = %74
  %93 = icmp samesign ult i32 %14, -67108864
  br i1 %93, label %94, label %110

94:                                               ; preds = %92
  %95 = load i32, ptr %4, align 8, !tbaa !57
  %96 = add i32 %7, 6
  %97 = tail call i32 @llvm.umin.i32(i32 %95, i32 %96)
  store i32 %97, ptr %3, align 8, !tbaa !59
  %98 = lshr i32 %97, 3
  %99 = zext nneg i32 %98 to i64
  %100 = getelementptr inbounds nuw i8, ptr %.val, i64 %99
  %101 = load i32, ptr %100, align 1, !tbaa !60
  %102 = tail call i32 @llvm.bswap.i32(i32 %101)
  %103 = and i32 %97, 7
  %104 = shl i32 %102, %103
  %105 = lshr i32 %104, 28
  %106 = add i32 %97, 4
  %107 = tail call i32 @llvm.umin.i32(i32 %95, i32 %106)
  store i32 %107, ptr %3, align 8, !tbaa !59
  %108 = add nuw i32 %.040, 16
  %109 = add nuw i32 %108, %105
  br label %161

110:                                              ; preds = %92
  %111 = icmp samesign ult i32 %14, -33554432
  br i1 %111, label %112, label %128

112:                                              ; preds = %110
  %113 = load i32, ptr %4, align 8, !tbaa !57
  %114 = add i32 %7, 7
  %115 = tail call i32 @llvm.umin.i32(i32 %113, i32 %114)
  store i32 %115, ptr %3, align 8, !tbaa !59
  %116 = lshr i32 %115, 3
  %117 = zext nneg i32 %116 to i64
  %118 = getelementptr inbounds nuw i8, ptr %.val, i64 %117
  %119 = load i32, ptr %118, align 1, !tbaa !60
  %120 = tail call i32 @llvm.bswap.i32(i32 %119)
  %121 = and i32 %115, 7
  %122 = shl i32 %120, %121
  %123 = lshr i32 %122, 27
  %124 = add i32 %115, 5
  %125 = tail call i32 @llvm.umin.i32(i32 %113, i32 %124)
  store i32 %125, ptr %3, align 8, !tbaa !59
  %126 = add nuw i32 %.040, 32
  %127 = add nuw i32 %126, %123
  br label %161

128:                                              ; preds = %110
  %129 = icmp samesign ult i32 %14, -16777216
  %130 = load i32, ptr %4, align 8, !tbaa !57
  br i1 %129, label %131, label %146

131:                                              ; preds = %128
  %132 = add i32 %7, 8
  %133 = tail call i32 @llvm.umin.i32(i32 %130, i32 %132)
  store i32 %133, ptr %3, align 8, !tbaa !59
  %134 = lshr i32 %133, 3
  %135 = zext nneg i32 %134 to i64
  %136 = getelementptr inbounds nuw i8, ptr %.val, i64 %135
  %137 = load i32, ptr %136, align 1, !tbaa !60
  %138 = tail call i32 @llvm.bswap.i32(i32 %137)
  %139 = and i32 %133, 7
  %140 = shl i32 %138, %139
  %141 = lshr i32 %140, 26
  %142 = add i32 %133, 6
  %143 = tail call i32 @llvm.umin.i32(i32 %130, i32 %142)
  store i32 %143, ptr %3, align 8, !tbaa !59
  %144 = add nuw i32 %.040, 64
  %145 = add nuw i32 %144, %141
  br label %161

146:                                              ; preds = %128
  %147 = add i32 %7, 9
  %148 = tail call i32 @llvm.umin.i32(i32 %130, i32 %147)
  store i32 %148, ptr %3, align 8, !tbaa !59
  %149 = lshr i32 %148, 3
  %150 = zext nneg i32 %149 to i64
  %151 = getelementptr inbounds nuw i8, ptr %.val, i64 %150
  %152 = load i32, ptr %151, align 1, !tbaa !60
  %153 = tail call i32 @llvm.bswap.i32(i32 %152)
  %154 = and i32 %148, 7
  %155 = shl i32 %153, %154
  %156 = lshr i32 %155, 25
  %157 = add i32 %148, 7
  %158 = tail call i32 @llvm.umin.i32(i32 %130, i32 %157)
  store i32 %158, ptr %3, align 8, !tbaa !59
  %159 = add nuw i32 %.040, 128
  %160 = add nuw i32 %159, %156
  br label %161

161:                                              ; preds = %27, %40, %76, %112, %146, %131, %94, %58, %33, %23
  %.0 = phi i32 [ %20, %23 ], [ %.040, %27 ], [ %37, %33 ], [ %55, %40 ], [ %73, %58 ], [ %91, %76 ], [ %109, %94 ], [ %127, %112 ], [ %145, %131 ], [ %160, %146 ]
  ret i32 %.0
}